target datalayout = "e-m:e-p270:32:32-p271:32:32-p272:64:64-i64:64-i128:128-f80:128-n8:16:32:64-S128"
target triple = "x86_64-pc-linux-gnu"

%struct.quic_tserver_args_st = type { ptr, ptr, ptr, ptr, ptr, ptr, ptr, ptr, i64 }
%struct.quic_tserver_st = type { %struct.quic_tserver_args_st, ptr, ptr, ptr, ptr, ptr, ptr, ptr, i8 }
%struct.OSSL_TIME = type { i64 }
%struct.quic_stream_st = type { %struct.quic_stream_list_node_st, %struct.quic_stream_list_node_st, %struct.quic_stream_list_node_st, ptr, i64, i64, i64, i64, i64, i64, i64, ptr, ptr, %struct.quic_txfc_st, %struct.quic_rxfc_st, i64 }
%struct.quic_stream_list_node_st = type { ptr, ptr }
%struct.quic_txfc_st = type { ptr, i64, i64, i8 }
%struct.quic_rxfc_st = type { i64, i64, i64, i64, i64, i64, i64, %struct.OSSL_TIME, ptr, ptr, ptr, i8, i8, i8, i8 }

; Function Attrs: nounwind uwtable
define i32 @ossl_quic_tserver_tick(ptr noundef %0) #0 {
  %2 = alloca ptr, align 8
  store ptr %0, ptr %2, align 8, !tbaa !10
  %3 = load ptr, ptr %2, align 8, !tbaa !10
  %4 = getelementptr inbounds nuw %struct.quic_tserver_st, ptr %3, i32 0, i32 4
  %5 = load ptr, ptr %4, align 8, !tbaa !52
  %6 = call ptr @ossl_quic_channel_get_reactor(ptr noundef %5)
  %7 = call i32 @ossl_quic_reactor_tick(ptr noundef %6, i32 noundef 0)
  %8 = load ptr, ptr %2, align 8, !tbaa !10
  %9 = getelementptr inbounds nuw %struct.quic_tserver_st, ptr %8, i32 0, i32 4
  %10 = load ptr, ptr %9, align 8, !tbaa !52
  %11 = call i32 @ossl_quic_channel_is_active(ptr noundef %10)
  %12 = icmp ne i32 %11, 0
  br i1 %12, label %13, label %19

13:                                               ; preds = %1
  %14 = load ptr, ptr %2, align 8, !tbaa !10
  %15 = getelementptr inbounds nuw %struct.quic_tserver_st, ptr %14, i32 0, i32 8
  %16 = load i8, ptr %15, align 8
  %17 = and i8 %16, -2
  %18 = or i8 %17, 1
  store i8 %18, ptr %15, align 8
  br label %19

19:                                               ; preds = %13, %1
  ret i32 1
}

; Function Attrs: inlinehint nounwind uwtable
define internal i32 @ossl_quic_stream_has_send_buffer(ptr noundef %0) #5 {
  %2 = alloca i32, align 4
  %3 = alloca ptr, align 8
  store ptr %0, ptr %3, align 8, !tbaa !80
  %4 = load ptr, ptr %3, align 8, !tbaa !80
  %5 = getelementptr inbounds nuw %struct.quic_stream_st, ptr %4, i32 0, i32 15
  %6 = load i64, ptr %5, align 8
  %7 = lshr i64 %6, 8
  %8 = and i64 %7, 255
  %9 = trunc i64 %8 to i32
  switch i32 %9, label %11 [
    i32 1, label %10
    i32 2, label %10
    i32 3, label %10
  ]

10:                                               ; preds = %1, %1, %1
  store i32 1, ptr %2, align 4
  br label %12

11:                                               ; preds = %1
  store i32 0, ptr %2, align 4
  br label %12

12:                                               ; preds = %11, %10
  %13 = load i32, ptr %2, align 4
  ret i32 %13
}

; Function Attrs: nounwind uwtable
define i32 @ossl_quic_tserver_conclude(ptr noundef %0, i64 noundef %1) #0 {
  %3 = alloca i32, align 4
  %4 = alloca ptr, align 8
  %5 = alloca i64, align 8
  %6 = alloca ptr, align 8
  %7 = alloca i32, align 4
  store ptr %0, ptr %4, align 8, !tbaa !10
  store i64 %1, ptr %5, align 8, !tbaa !26
  call void @llvm.lifetime.start.p0(i64 8, ptr %6) #6
  %8 = load ptr, ptr %4, align 8, !tbaa !10
  %9 = getelementptr inbounds nuw %struct.quic_tserver_st, ptr %8, i32 0, i32 4
  %10 = load ptr, ptr %9, align 8, !tbaa !52
  %11 = call i32 @ossl_quic_channel_is_active(ptr noundef %10)
  %12 = icmp ne i32 %11, 0
  br i1 %12, label %14, label %13

13:                                               ; preds = %2
  store i32 0, ptr %3, align 4
  store i32 1, ptr %7, align 4
  br label %46

14:                                               ; preds = %2
  %15 = load ptr, ptr %4, align 8, !tbaa !10
  %16 = getelementptr inbounds nuw %struct.quic_tserver_st, ptr %15, i32 0, i32 4
  %17 = load ptr, ptr %16, align 8, !tbaa !52
  %18 = call ptr @ossl_quic_channel_get_qsm(ptr noundef %17)
  %19 = load i64, ptr %5, align 8, !tbaa !26
  %20 = call ptr @ossl_quic_stream_map_get_by_id(ptr noundef %18, i64 noundef %19)
  store ptr %20, ptr %6, align 8, !tbaa !80
  %21 = load ptr, ptr %6, align 8, !tbaa !80
  %22 = icmp eq ptr %21, null
  br i1 %22, label %27, label %23

23:                                               ; preds = %14
  %24 = load ptr, ptr %6, align 8, !tbaa !80
  %25 = call i32 @ossl_quic_stream_has_send_buffer(ptr noundef %24)
  %26 = icmp ne i32 %25, 0
  br i1 %26, label %28, label %27

27:                                               ; preds = %23, %14
  store i32 0, ptr %3, align 4
  store i32 1, ptr %7, align 4
  br label %46

28:                                               ; preds = %23
  %29 = load ptr, ptr %6, align 8, !tbaa !80
  %30 = getelementptr inbounds nuw %struct.quic_stream_st, ptr %29, i32 0, i32 11
  %31 = load ptr, ptr %30, align 8, !tbaa !93
  %32 = call i32 @ossl_quic_sstream_get_final_size(ptr noundef %31, ptr noundef null)
  %33 = icmp ne i32 %32, 0
  br i1 %33, label %43, label %34

34:                                               ; preds = %28
  %35 = load ptr, ptr %6, align 8, !tbaa !80
  %36 = getelementptr inbounds nuw %struct.quic_stream_st, ptr %35, i32 0, i32 11
  %37 = load ptr, ptr %36, align 8, !tbaa !93
  call void @ossl_quic_sstream_fin(ptr noundef %37)
  %38 = load ptr, ptr %4, align 8, !tbaa !10
  %39 = getelementptr inbounds nuw %struct.quic_tserver_st, ptr %38, i32 0, i32 4
  %40 = load ptr, ptr %39, align 8, !tbaa !52
  %41 = call ptr @ossl_quic_channel_get_qsm(ptr noundef %40)
  %42 = load ptr, ptr %6, align 8, !tbaa !80
  call void @ossl_quic_stream_map_update_state(ptr noundef %41, ptr noundef %42)
  br label %43

43:                                               ; preds = %34, %28
  %44 = load ptr, ptr %4, align 8, !tbaa !10
  %45 = call i32 @ossl_quic_tserver_tick(ptr noundef %44)
  store i32 1, ptr %3, align 4
  store i32 1, ptr %7, align 4
  br label %46

46:                                               ; preds = %43, %27, %13
  call void @llvm.lifetime.end.p0(i64 8, ptr %6) #6
  %47 = load i32, ptr %3, align 4
  ret i32 %47
}