; Function Attrs: nounwind uwtable
define range(i32 0, 2) i32 @ossl_quic_tserver_conclude(ptr noundef captures(none) %0, i64 noundef %1) local_unnamed_addr #0 {
  %3 = getelementptr inbounds nuw i8, ptr %0, i64 96
  %4 = load ptr, ptr %3, align 8, !tbaa !46
  %5 = tail call i32 @ossl_quic_channel_is_active(ptr noundef %4) #6
  %.not = icmp eq i32 %5, 0
  br i1 %.not, label %ossl_quic_tserver_tick.exit, label %6

6:                                                ; preds = %2
  %7 = load ptr, ptr %3, align 8, !tbaa !46
  %8 = tail call ptr @ossl_quic_channel_get_qsm(ptr noundef %7) #6
  %9 = tail call ptr @ossl_quic_stream_map_get_by_id(ptr noundef %8, i64 noundef %1) #6
  %10 = icmp eq ptr %9, null
  br i1 %10, label %ossl_quic_tserver_tick.exit, label %11

11:                                               ; preds = %6
  %12 = getelementptr i8, ptr %9, i64 256
  %.val = load i64, ptr %12, align 8
  %13 = lshr i64 %.val, 8
  %trunc.i = trunc i64 %13 to i8
  %14 = add i8 %trunc.i, -4
  %switch.i = icmp ult i8 %14, -3
  br i1 %switch.i, label %ossl_quic_tserver_tick.exit, label %15

15:                                               ; preds = %11
  %16 = getelementptr inbounds nuw i8, ptr %9, i64 112
  %17 = load ptr, ptr %16, align 8, !tbaa !81
  %18 = tail call i32 @ossl_quic_sstream_get_final_size(ptr noundef %17, ptr noundef null) #6
  %.not12 = icmp eq i32 %18, 0
  br i1 %.not12, label %19, label %23

19:                                               ; preds = %15
  %20 = load ptr, ptr %16, align 8, !tbaa !81
  tail call void @ossl_quic_sstream_fin(ptr noundef %20) #6
  %21 = load ptr, ptr %3, align 8, !tbaa !46
  %22 = tail call ptr @ossl_quic_channel_get_qsm(ptr noundef %21) #6
  tail call void @ossl_quic_stream_map_update_state(ptr noundef %22, ptr noundef nonnull %9) #6
  br label %23

23:                                               ; preds = %19, %15
  %24 = load ptr, ptr %3, align 8, !tbaa !46
  %25 = tail call ptr @ossl_quic_channel_get_reactor(ptr noundef %24) #6
  %26 = tail call i32 @ossl_quic_reactor_tick(ptr noundef %25, i32 noundef 0) #6
  %27 = load ptr, ptr %3, align 8, !tbaa !46
  %28 = tail call i32 @ossl_quic_channel_is_active(ptr noundef %27) #6
  %.not.i = icmp eq i32 %28, 0
  br i1 %.not.i, label %ossl_quic_tserver_tick.exit, label %29

29:                                               ; preds = %23
  %30 = getelementptr inbounds nuw i8, ptr %0, i64 128
  %31 = load i8, ptr %30, align 8
  %32 = or i8 %31, 1
  store i8 %32, ptr %30, align 8
  br label %ossl_quic_tserver_tick.exit

ossl_quic_tserver_tick.exit:                      ; preds = %29, %23, %6, %11, %2
  %.0 = phi i32 [ 0, %2 ], [ 0, %11 ], [ 0, %6 ], [ 1, %23 ], [ 1, %29 ]
  ret i32 %.0
}